target datalayout = "e-m:e-p270:32:32-p271:32:32-p272:64:64-i64:64-i128:128-f80:128-n8:16:32:64-S128"
target triple = "x86_64-pc-linux-gnu"

%struct._cmsOptimizationPluginChunkType = type { ptr }
%struct._cmsOptimizationCollection_st = type { ptr, ptr }
%struct._cmsContext_struct = type { ptr, ptr, [16 x ptr], %struct._cmsMemPluginChunkType }
%struct._cmsMemPluginChunkType = type { ptr, ptr, ptr, ptr, ptr, ptr }

@_cmsAllocOptimizationPluginChunk.OptimizationPluginChunkType = internal global %struct._cmsOptimizationPluginChunkType zeroinitializer, align 8

; Function Attrs: nounwind uwtable
define internal void @DupPluginOptimizationList(ptr noundef %0, ptr noundef %1) #0 {
  %3 = alloca ptr, align 8
  %4 = alloca ptr, align 8
  %5 = alloca %struct._cmsOptimizationPluginChunkType, align 8
  %6 = alloca ptr, align 8
  %7 = alloca ptr, align 8
  %8 = alloca ptr, align 8
  %9 = alloca ptr, align 8
  store ptr %0, ptr %3, align 8
  store ptr %1, ptr %4, align 8
  call void @llvm.memset.p0.i64(ptr align 8 %5, i8 0, i64 8, i1 false)
  store ptr null, ptr %7, align 8
  %10 = load ptr, ptr %4, align 8
  %11 = getelementptr inbounds %struct._cmsContext_struct, ptr %10, i32 0, i32 2
  %12 = getelementptr inbounds [16 x ptr], ptr %11, i64 0, i64 12
  %13 = load ptr, ptr %12, align 8
  store ptr %13, ptr %8, align 8
  %14 = load ptr, ptr %8, align 8
  %15 = getelementptr inbounds %struct._cmsOptimizationPluginChunkType, ptr %14, i32 0, i32 0
  %16 = load ptr, ptr %15, align 8
  store ptr %16, ptr %6, align 8
  br label %17

17:                                               ; preds = %47, %2
  %18 = load ptr, ptr %6, align 8
  %19 = icmp ne ptr %18, null
  br i1 %19, label %20, label %51

20:                                               ; preds = %17
  %21 = load ptr, ptr %3, align 8
  %22 = getelementptr inbounds %struct._cmsContext_struct, ptr %21, i32 0, i32 1
  %23 = load ptr, ptr %22, align 8
  %24 = load ptr, ptr %6, align 8
  %25 = call ptr @_cmsSubAllocDup(ptr noundef %23, ptr noundef %24, i32 noundef 16)
  store ptr %25, ptr %9, align 8
  %26 = load ptr, ptr %9, align 8
  %27 = icmp eq ptr %26, null
  br i1 %27, label %28, label %29

28:                                               ; preds = %20
  br label %59

29:                                               ; preds = %20
  %30 = load ptr, ptr %9, align 8
  %31 = getelementptr inbounds %struct._cmsOptimizationCollection_st, ptr %30, i32 0, i32 1
  store ptr null, ptr %31, align 8
  %32 = load ptr, ptr %7, align 8
  %33 = icmp ne ptr %32, null
  br i1 %33, label %34, label %38

34:                                               ; preds = %29
  %35 = load ptr, ptr %9, align 8
  %36 = load ptr, ptr %7, align 8
  %37 = getelementptr inbounds %struct._cmsOptimizationCollection_st, ptr %36, i32 0, i32 1
  store ptr %35, ptr %37, align 8
  br label %38

38:                                               ; preds = %34, %29
  %39 = load ptr, ptr %9, align 8
  store ptr %39, ptr %7, align 8
  %40 = getelementptr inbounds %struct._cmsOptimizationPluginChunkType, ptr %5, i32 0, i32 0
  %41 = load ptr, ptr %40, align 8
  %42 = icmp eq ptr %41, null
  br i1 %42, label %43, label %46

43:                                               ; preds = %38
  %44 = load ptr, ptr %9, align 8
  %45 = getelementptr inbounds %struct._cmsOptimizationPluginChunkType, ptr %5, i32 0, i32 0
  store ptr %44, ptr %45, align 8
  br label %46

46:                                               ; preds = %43, %38
  br label %47

47:                                               ; preds = %46
  %48 = load ptr, ptr %6, align 8
  %49 = getelementptr inbounds %struct._cmsOptimizationCollection_st, ptr %48, i32 0, i32 1
  %50 = load ptr, ptr %49, align 8
  store ptr %50, ptr %6, align 8
  br label %17, !llvm.loop !6

51:                                               ; preds = %17
  %52 = load ptr, ptr %3, align 8
  %53 = getelementptr inbounds %struct._cmsContext_struct, ptr %52, i32 0, i32 1
  %54 = load ptr, ptr %53, align 8
  %55 = call ptr @_cmsSubAllocDup(ptr noundef %54, ptr noundef %5, i32 noundef 8)
  %56 = load ptr, ptr %3, align 8
  %57 = getelementptr inbounds %struct._cmsContext_struct, ptr %56, i32 0, i32 2
  %58 = getelementptr inbounds [16 x ptr], ptr %57, i64 0, i64 12
  store ptr %55, ptr %58, align 8
  br label %59

59:                                               ; preds = %51, %28
  ret void
}

; Function Attrs: nounwind uwtable
define hidden void @_cmsAllocOptimizationPluginChunk(ptr noundef %0, ptr noundef %1) #0 {
  %3 = alloca ptr, align 8
  %4 = alloca ptr, align 8
  store ptr %0, ptr %3, align 8
  store ptr %1, ptr %4, align 8
  %5 = load ptr, ptr %4, align 8
  %6 = icmp ne ptr %5, null
  br i1 %6, label %7, label %10

7:                                                ; preds = %2
  %8 = load ptr, ptr %3, align 8
  %9 = load ptr, ptr %4, align 8
  call void @DupPluginOptimizationList(ptr noundef %8, ptr noundef %9)
  br label %18

10:                                               ; preds = %2
  %11 = load ptr, ptr %3, align 8
  %12 = getelementptr inbounds %struct._cmsContext_struct, ptr %11, i32 0, i32 1
  %13 = load ptr, ptr %12, align 8
  %14 = call ptr @_cmsSubAllocDup(ptr noundef %13, ptr noundef @_cmsAllocOptimizationPluginChunk.OptimizationPluginChunkType, i32 noundef 8)
  %15 = load ptr, ptr %3, align 8
  %16 = getelementptr inbounds %struct._cmsContext_struct, ptr %15, i32 0, i32 2
  %17 = getelementptr inbounds [16 x ptr], ptr %16, i64 0, i64 12
  store ptr %14, ptr %17, align 8
  br label %18

18:                                               ; preds = %10, %7
  ret void
}